; ModuleID = '57/1087.c'
source_filename = "57/1087.c"
target datalayout = "e-m:e-p270:32:32-p271:32:32-p272:64:64-i64:64-f80:128-n8:16:32:64-S128"
target triple = "x86_64-pc-linux-gnu"

@.str = private unnamed_addr constant [3 x i8] c"%d\00", align 1
@.str.1 = private unnamed_addr constant [3 x i8] c"%s\00", align 1
@.str.2 = private unnamed_addr constant [4 x i8] c"ing\00", align 1
@.str.3 = private unnamed_addr constant [3 x i8] c"er\00", align 1
@.str.4 = private unnamed_addr constant [3 x i8] c"ly\00", align 1

; Function Attrs: noinline nounwind uwtable
define dso_local i32 @main() #0 {
  %1 = alloca i32, align 4
  %2 = alloca i32, align 4
  %3 = alloca i32, align 4
  %4 = alloca i32, align 4
  %5 = alloca [51 x [33 x i8]], align 16
  store i32 0, i32* %1, align 4
  %6 = call i32 (i8*, ...) @__isoc99_scanf(i8* getelementptr inbounds ([3 x i8], [3 x i8]* @.str, i64 0, i64 0), i32* %4)
  store i32 0, i32* %2, align 4
  br label %7

7:                                                ; preds = %17, %0
  %8 = load i32, i32* %2, align 4
  %9 = load i32, i32* %4, align 4
  %10 = icmp slt i32 %8, %9
  br i1 %10, label %11, label %20

11:                                               ; preds = %7
  %12 = load i32, i32* %2, align 4
  %13 = sext i32 %12 to i64
  %14 = getelementptr inbounds [51 x [33 x i8]], [51 x [33 x i8]]* %5, i64 0, i64 %13
  %15 = getelementptr inbounds [33 x i8], [33 x i8]* %14, i64 0, i64 0
  %16 = call i32 (i8*, ...) @__isoc99_scanf(i8* getelementptr inbounds ([3 x i8], [3 x i8]* @.str.1, i64 0, i64 0), i8* %15)
  br label %17

17:                                               ; preds = %11
  %18 = load i32, i32* %2, align 4
  %19 = add nsw i32 %18, 1
  store i32 %19, i32* %2, align 4
  br label %7

20:                                               ; preds = %7
  store i32 0, i32* %2, align 4
  br label %21

21:                                               ; preds = %78, %20
  %22 = load i32, i32* %2, align 4
  %23 = load i32, i32* %4, align 4
  %24 = icmp slt i32 %22, %23
  br i1 %24, label %25, label %81

25:                                               ; preds = %21
  %26 = load i32, i32* %2, align 4
  %27 = sext i32 %26 to i64
  %28 = getelementptr inbounds [51 x [33 x i8]], [51 x [33 x i8]]* %5, i64 0, i64 %27
  %29 = getelementptr inbounds [33 x i8], [33 x i8]* %28, i64 0, i64 0
  %30 = call i64 @strlen(i8* %29) #3
  %31 = trunc i64 %30 to i32
  store i32 %31, i32* %3, align 4
  %32 = load i32, i32* %2, align 4
  %33 = sext i32 %32 to i64
  %34 = getelementptr inbounds [51 x [33 x i8]], [51 x [33 x i8]]* %5, i64 0, i64 %33
  %35 = load i32, i32* %3, align 4
  %36 = sub nsw i32 %35, 3
  %37 = sext i32 %36 to i64
  %38 = getelementptr inbounds [33 x i8], [33 x i8]* %34, i64 0, i64 %37
  %39 = call i32 @strcmp(i8* %38, i8* getelementptr inbounds ([4 x i8], [4 x i8]* @.str.2, i64 0, i64 0)) #3
  %40 = icmp eq i32 %39, 0
  br i1 %40, label %41, label %49

41:                                               ; preds = %25
  %42 = load i32, i32* %2, align 4
  %43 = sext i32 %42 to i64
  %44 = getelementptr inbounds [51 x [33 x i8]], [51 x [33 x i8]]* %5, i64 0, i64 %43
  %45 = load i32, i32* %3, align 4
  %46 = sub nsw i32 %45, 3
  %47 = sext i32 %46 to i64
  %48 = getelementptr inbounds [33 x i8], [33 x i8]* %44, i64 0, i64 %47
  store i8 0, i8* %48, align 1
  br label %49

49:                                               ; preds = %41, %25
  %50 = load i32, i32* %2, align 4
  %51 = sext i32 %50 to i64
  %52 = getelementptr inbounds [51 x [33 x i8]], [51 x [33 x i8]]* %5, i64 0, i64 %51
  %53 = load i32, i32* %3, align 4
  %54 = sub nsw i32 %53, 2
  %55 = sext i32 %54 to i64
  %56 = getelementptr inbounds [33 x i8], [33 x i8]* %52, i64 0, i64 %55
  %57 = call i32 @strcmp(i8* %56, i8* getelementptr inbounds ([3 x i8], [3 x i8]* @.str.3, i64 0, i64 0)) #3
  %58 = icmp eq i32 %57, 0
  br i1 %58, label %69, label %59

59:                                               ; preds = %49
  %60 = load i32, i32* %2, align 4
  %61 = sext i32 %60 to i64
  %62 = getelementptr inbounds [51 x [33 x i8]], [51 x [33 x i8]]* %5, i64 0, i64 %61
  %63 = load i32, i32* %3, align 4
  %64 = sub nsw i32 %63, 2
  %65 = sext i32 %64 to i64
  %66 = getelementptr inbounds [33 x i8], [33 x i8]* %62, i64 0, i64 %65
  %67 = call i32 @strcmp(i8* %66, i8* getelementptr inbounds ([3 x i8], [3 x i8]* @.str.4, i64 0, i64 0)) #3
  %68 = icmp eq i32 %67, 0
  br i1 %68, label %69, label %77

69:                                               ; preds = %59, %49
  %70 = load i32, i32* %2, align 4
  %71 = sext i32 %70 to i64
  %72 = getelementptr inbounds [51 x [33 x i8]], [51 x [33 x i8]]* %5, i64 0, i64 %71
  %73 = load i32, i32* %3, align 4
  %74 = sub nsw i32 %73, 2
  %75 = sext i32 %74 to i64
  %76 = getelementptr inbounds [33 x i8], [33 x i8]* %72, i64 0, i64 %75
  store i8 0, i8* %76, align 1
  br label %77

77:                                               ; preds = %69, %59
  br label %78

78:                                               ; preds = %77
  %79 = load i32, i32* %2, align 4
  %80 = add nsw i32 %79, 1
  store i32 %80, i32* %2, align 4
  br label %21

81:                                               ; preds = %21
  store i32 0, i32* %2, align 4
  br label %82

82:                                               ; preds = %92, %81
  %83 = load i32, i32* %2, align 4
  %84 = load i32, i32* %4, align 4
  %85 = icmp slt i32 %83, %84
  br i1 %85, label %86, label %95

86:                                               ; preds = %82
  %87 = load i32, i32* %2, align 4
  %88 = sext i32 %87 to i64
  %89 = getelementptr inbounds [51 x [33 x i8]], [51 x [33 x i8]]* %5, i64 0, i64 %88
  %90 = getelementptr inbounds [33 x i8], [33 x i8]* %89, i64 0, i64 0
  %91 = call i32 @puts(i8* %90)
  br label %92

92:                                               ; preds = %86
  %93 = load i32, i32* %2, align 4
  %94 = add nsw i32 %93, 1
  store i32 %94, i32* %2, align 4
  br label %82

95:                                               ; preds = %82
  ret i32 0
}

declare dso_local i32 @__isoc99_scanf(i8*, ...) #1

; Function Attrs: nounwind readonly
declare dso_local i64 @strlen(i8*) #2

; Function Attrs: nounwind readonly
declare dso_local i32 @strcmp(i8*, i8*) #2

declare dso_local i32 @puts(i8*) #1


!llvm.module.flags = !{!0}
!llvm.ident = !{!1}

!0 = !{i32 1, !"wchar_size", i32 4}
!1 = !{!"clang version 10.0.0-4ubuntu1 "}
